(lp1
ctorch._utils
_rebuild_tensor
p2
(ctorch.cuda
FloatStorage
p3
((lp4
F0.029879162088036537
aF-0.2331068366765976
aF0.28107243776321411
aF-0.04134204238653183
aF0.27745765447616577
aF-0.050161715596914291
aF-0.27894136309623718
aF-0.12004761397838593
aF0.061326943337917328
aF0.12322352826595306
aF0.16784955561161041
aF0.17657364904880524
aF-0.18213577568531036
aF0.28915488719940186
aF0.097637861967086792
aF-0.15976648032665253
aF0.082396179437637329
aF0.12116601318120956
aF-0.29263171553611755
aF0.014653203077614307
aF-0.025650724768638611
aF0.11739902198314667
aF-0.2796306312084198
aF0.06029951199889183
aF0.21994851529598236
aF0.19481776654720306
aF-0.03658062219619751
aF0.044594757258892059
aF-0.0063362643122673035
aF-0.21222808957099915
aF0.17434979975223541
aF0.29486683011054993
aF-0.1283566802740097
aF0.23278701305389404
aF0.24440678954124451
aF-0.066541627049446106
aF0.063525587320327759
aF-0.27982538938522339
aF-0.25818845629692078
aF-0.26348155736923218
aF0.2952038049697876
aF0.22881540656089783
aF0.13116163015365601
aF0.063340328633785248
aF0.15559174120426178
aF-0.28162172436714172
aF0.17618392407894135
aF-0.026801763102412224
aF-0.064172849059104919
aF0.21340015530586243
aF-0.088335096836090088
aF-0.10567007213830948
aF-0.043697435408830643
aF0.12212067097425461
aF-0.041706204414367676
aF-0.26606449484825134
aF0.1549726277589798
aF0.26354238390922546
aF-0.22200605273246765
aF0.15903042256832123
aF0.11703769117593765
aF-0.0070088538341224194
aF0.089590102434158325
aF0.087404787540435791
aF-0.089650817215442657
aF0.25046229362487793
aF-0.29668727517127991
aF0.090839080512523651
aF-0.11321840435266495
aF0.065065883100032806
aF0.1543007493019104
aF0.12466597557067871
aF0.31297934055328369
aF0.066122338175773621
aF-0.04339904710650444
aF-0.2789502739906311
aF-0.17428407073020935
aF-0.069128707051277161
aF-0.28563514351844788
aF-0.17084632813930511
aF0.025989178568124771
aF-0.10463042557239532
aF0.12497822940349579
aF-0.19602030515670776
aF-0.055915810167789459
aF0.18585775792598724
aF0.13891009986400604
aF-0.069307409226894379
aF0.043256107717752457
aF-0.08321063220500946
aF0.053599894046783447
aF0.19649653136730194
aF0.11303681135177612
aF-0.0061516738496720791
aF0.080900058150291443
aF-0.2134024053812027
aF0.019033577293157578
aF-0.090678982436656952
aF0.25355765223503113
aF-0.15307371318340302
aF-0.10273614525794983
aF-0.040257580578327179
aF0.17703196406364441
aF-0.12170074880123138
aF-0.028149787336587906
aF-0.17421355843544006
aF0.12432900071144104
aF0.18622171878814697
aF-0.13215643167495728
aF-0.2601855993270874
aF0.049542203545570374
aF0.19737273454666138
aF-0.18710404634475708
aF0.01415727287530899
aF0.028683008626103401
aF-0.060776561498641968
aF0.18817213177680969
aF-0.0791783407330513
aF0.080159947276115417
aF0.15923219919204712
aF-0.15773256123065948
aF0.094319894909858704
aF0.1348087340593338
aF-0.072270810604095459
aF0.086204349994659424
aF-0.22839674353599548
aF0.21242319047451019
aF0.29662105441093445
aF0.14939230680465698
aF-0.10086728632450104
aF-0.07461480051279068
aF-0.14791534841060638
aF-0.0079834703356027603
aF0.15301850438117981
aF-0.16465932130813599
aF0.16813428699970245
aF0.015833655372262001
aF0.27257013320922852
aF0.1991419792175293
aF-0.14138078689575195
aF-0.14700458943843842
aF0.17457978427410126
aF0.092347607016563416
aF-0.12905129790306091
aF0.070652291178703308
aF-0.23131780326366425
aF0.17504768073558807
aF0.058611806482076645
aF0.036117199808359146
aF-0.11633522063493729
aF-0.28881365060806274
aF0.30968129634857178
aF0.12523312866687775
aF-0.070691153407096863
aF0.17056867480278015
aF-0.12627854943275452
aF0.023416727781295776
aF0.20892016589641571
aF0.26365488767623901
aF-0.19779236614704132
aF0.22725968062877655
aF-0.17967960238456726
aF-0.10931643098592758
aF-0.052021130919456482
aF0.0061340592801570892
aF0.14591550827026367
aF0.13653731346130371
aF0.012504939921200275
aF0.10618560016155243
aF0.080135248601436615
aF0.21055823564529419
aF-0.24538689851760864
aF0.30203959345817566
aF-0.046475056558847427
aF0.14362294971942902
aF0.07149013876914978
aF-0.13477493822574615
aF-0.047269336879253387
aF-0.070414669811725616
aF0.16302847862243652
aF0.0727086141705513
aF0.19804254174232483
aF0.1485447883605957
aF0.11455024778842926
aF-0.24556005001068115
aF0.23627561330795288
aF0.19312699139118195
aF0.053609311580657959
aF-0.27745902538299561
aF0.24882033467292786
aF0.15830466151237488
aF0.14300329983234406
aF0.035338282585144043
aF0.097470901906490326
aF0.12575699388980865
aF0.10576223582029343
aF-0.27429455518722534
aF-0.14047090709209442
aF-0.23253908753395081
aF0.19764655828475952
atRp5
I0
(L40L
L5L
t(L5L
L1L
ttRp6
ag2
(g3
((lp7
F-0.099974021315574646
aF-0.018543761223554611
aF-0.18874149024486542
aF0.27832850813865662
aF-0.021751508116722107
aF-0.19121718406677246
aF-0.16685156524181366
aF0.27659359574317932
aF-0.22292640805244446
aF0.077412635087966919
aF0.30891439318656921
aF-0.18274092674255371
aF-0.28668725490570068
aF-0.089614570140838623
aF-0.074371747672557831
aF-0.054080795496702194
aF-0.25331178307533264
aF0.2515619695186615
aF0.10286650806665421
aF0.20115464925765991
aF-0.28122720122337341
aF0.062687553465366364
aF-0.23563860356807709
aF0.25239700078964233
aF0.15400125086307526
aF0.24160352349281311
aF0.1929246187210083
aF0.30074864625930786
aF0.18542902171611786
aF0.15332455933094025
aF-0.14324748516082764
aF-0.10220951586961746
aF0.14380879700183868
aF0.21621997654438019
aF0.077771745622158051
aF-0.19139029085636139
aF-0.30201756954193115
aF-0.24637340009212494
aF0.010741515085101128
aF-0.1529686450958252
aF-0.29749378561973572
aF0.0027721703518182039
aF-0.067821718752384186
aF0.24072323739528656
aF-0.028107406571507454
aF-0.11156857013702393
aF0.10751941055059433
aF-0.14390188455581665
aF0.25724953413009644
aF-0.17617253959178925
aF-0.14910970628261566
aF-0.15089240670204163
aF-0.063519656658172607
aF0.23418490588665009
aF-0.27310225367546082
aF0.021600997075438499
aF0.25875842571258545
aF0.1371571272611618
aF0.0061131822876632214
aF0.14467163383960724
aF-0.31466519832611084
aF0.22995771467685699
aF0.012282935902476311
aF0.17811585962772369
aF-0.042944133281707764
aF-0.019504956901073456
aF0.14735397696495056
aF-0.25522273778915405
aF0.29934614896774292
aF0.048837274312973022
aF0.0024127347860485315
aF-0.25015804171562195
aF0.17364445328712463
aF-0.14056454598903656
aF-0.28138169646263123
aF-0.12523292005062103
aF-0.21298639476299286
aF0.25114196538925171
aF0.23655785620212555
aF-0.16630879044532776
aF0.13054285943508148
aF0.012538475915789604
aF-0.20332874357700348
aF0.18506400287151337
aF0.25672778487205505
aF0.22351562976837158
aF0.29461163282394409
aF0.063765473663806915
aF-0.21020753681659698
aF0.30227541923522949
aF-0.26035472750663757
aF0.17914877831935883
aF-0.31280985474586487
aF0.11110389977693558
aF0.06645125150680542
aF-0.10768310725688934
aF0.1242736428976059
aF-0.23698033392429352
aF-0.11787036806344986
aF-0.011582787148654461
aF0.259022057056427
aF-0.29413756728172302
aF0.082799419760704041
aF-0.14888350665569305
aF-0.10903751850128174
aF0.083145648241043091
aF-0.10268032550811768
aF-0.18086045980453491
aF0.18728181719779968
aF-0.063760861754417419
aF-0.081796884536743164
aF-0.14767313003540039
aF-0.28301772475242615
aF0.19367294013500214
aF0.22181196510791779
aF-0.10623761266469955
aF-0.24495182931423187
aF0.1864398717880249
aF-0.25213852524757385
aF-0.21106253564357758
aF-0.031941380351781845
aF0.267576664686203
aF0.24129961431026459
aF0.08509015291929245
aF-0.17619770765304565
aF-0.024743631482124329
aF-0.25296658277511597
aF0.081530138850212097
aF0.16520722210407257
aF-0.068073399364948273
aF0.014066777192056179
aF0.31351429224014282
aF-0.078610889613628387
aF0.034676659852266312
aF0.30245280265808105
aF0.2444181889295578
aF-0.007658450398594141
aF0.062019959092140198
aF0.23833408951759338
aF0.22728155553340912
aF0.31300932168960571
aF-0.1647220253944397
aF0.18171323835849762
aF0.13597966730594635
aF-0.28598350286483765
aF0.055433977395296097
aF-0.29050537943840027
aF-0.18066929280757904
aF0.14526885747909546
aF-0.1231372058391571
aF0.10578961670398712
aF-0.095215171575546265
aF0.28860187530517578
aF-0.21994055807590485
aF-0.17751456797122955
aF0.24293355643749237
aF0.10264488309621811
aF-0.28894656896591187
aF-0.0397515669465065
aF0.17866034805774689
aF0.28439146280288696
aF0.21908311545848846
aF-0.0557887963950634
aF0.21613970398902893
aF0.25816413760185242
aF-0.25693988800048828
aF0.026759902015328407
aF0.1860230565071106
aF-0.21290554106235504
aF-0.31192508339881897
aF-0.30010208487510681
aF0.13360089063644409
aF0.064981557428836823
aF0.14906206727027893
aF-0.016159670427441597
aF0.13820983469486237
aF-0.17207951843738556
aF-0.00049782136920839548
aF0.24082866311073303
aF0.25203660130500793
aF-0.027818053960800171
aF0.119432233273983
aF0.012034818530082703
aF-0.25758346915245056
aF-0.11690499633550644
aF-0.27399960160255432
aF-0.083805091679096222
aF-0.08374679833650589
aF-0.28749319911003113
aF-0.028082005679607391
aF0.17976735532283783
aF0.11410965025424957
aF0.25486767292022705
aF-0.31396773457527161
aF-0.046655792742967606
aF0.075294271111488342
aF-0.018688825890421867
aF-0.19173885881900787
aF0.063470989465713501
aF-0.20828515291213989
aF0.018904261291027069
aF0.0056605744175612926
aF-0.01439786609262228
aF0.16854016482830048
aF-0.043144024908542633
aF-0.042526774108409882
aF0.068855099380016327
aF-0.049113679677248001
aF0.18212540447711945
aF-0.050457675009965897
aF0.024764075875282288
aF0.12658821046352386
aF0.072142452001571655
aF-0.20834933221340179
aF-0.22486847639083862
aF0.044233877211809158
aF-0.22486308217048645
aF-0.28029173612594604
aF0.070468127727508545
aF-0.04136287048459053
aF-0.043279260396957397
aF0.28754523396492004
aF0.30052202939987183
aF-0.30486857891082764
aF0.23276503384113312
aF0.10891440510749817
aF0.24854545295238495
aF0.08414720743894577
aF-0.18649502098560333
aF-0.11933065950870514
aF0.15393944084644318
aF-0.10688043385744095
aF-0.19852378964424133
aF-0.043113753199577332
aF-0.20705482363700867
aF-0.20839585363864899
aF0.036991041153669357
aF0.037913069128990173
aF-0.25272604823112488
aF0.059615500271320343
aF-0.13670361042022705
aF0.24566718935966492
aF-0.30362018942832947
aF-0.15292869508266449
aF0.25498461723327637
aF-0.13496537506580353
aF0.22534260153770447
aF-0.13638541102409363
aF-0.11950572580099106
aF0.1236213743686676
aF0.097547009587287903
aF0.14224639534950256
aF-0.041926942765712738
aF-0.020151371136307716
aF0.12676063179969788
aF0.29237082600593567
aF-0.089044831693172455
aF-0.23337201774120331
aF-0.087362885475158691
aF0.11145073175430298
aF0.063900642096996307
aF-0.2002229243516922
aF0.16935552656650543
aF-0.21541735529899597
aF-0.21832917630672455
aF0.062490563839673996
aF-0.16458535194396973
aF0.14986608922481537
aF0.14223626255989075
aF-0.2341117262840271
aF-0.2399066686630249
aF0.22850708663463593
aF-0.23457926511764526
aF-0.23064990341663361
aF-0.20561672747135162
aF0.087467268109321594
aF-0.27314335107803345
aF-0.16999393701553345
aF0.03889857605099678
aF-0.14065217971801758
aF0.21972516179084778
aF0.12482085824012756
aF0.028823522850871086
aF-0.058294039219617844
aF0.12516839802265167
aF0.16277070343494415
aF-0.19563104212284088
aF-0.031675137579441071
aF0.12315730005502701
aF0.21047498285770416
aF0.17416879534721375
aF-0.01623886451125145
aF0.099365487694740295
aF0.091476961970329285
aF-0.30291944742202759
aF0.081633009016513824
aF0.14998315274715424
aF-0.18353991210460663
aF0.23665903508663177
aF0.26532590389251709
aF0.18904538452625275
aF-0.031625702977180481
aF0.12674780189990997
aF0.050289083272218704
aF-0.064322799444198608
aF-0.21702778339385986
aF0.23841901123523712
aF0.28336057066917419
aF-0.19094358384609222
aF0.27961388230323792
aF-0.10701902955770493
aF0.20567920804023743
aF-0.18359044194221497
aF0.2472776472568512
aF0.13707217574119568
aF0.23468688130378723
aF0.18922978639602661
aF0.08777327835559845
aF0.15729621052742004
aF-0.27266871929168701
aF-0.087735168635845184
aF-0.083396725356578827
aF-0.11527229100465775
aF-0.15811029076576233
aF-0.13460463285446167
aF0.047846786677837372
aF-0.24440844357013702
aF0.022942069917917252
aF0.25914642214775085
aF0.24659101665019989
aF0.075902663171291351
aF-0.043780256062746048
aF0.014848651364445686
aF0.0075341919437050819
aF0.25936144590377808
aF-0.19997723400592804
aF-0.063728123903274536
aF-0.27803289890289307
aF-0.047694094479084015
aF0.14224629104137421
aF0.2386150062084198
aF-0.27863660454750061
aF0.2126137763261795
aF0.13583455979824066
aF0.20834249258041382
aF-0.22193251550197601
aF-0.13575111329555511
aF-0.045646309852600098
aF0.24463917315006256
aF0.27437323331832886
aF0.23650021851062775
aF-0.27837041020393372
aF-0.14177460968494415
aF-0.25634050369262695
aF0.027766704559326172
aF-0.082102172076702118
aF0.039471011608839035
aF-0.14888344705104828
aF0.20041568577289581
aF-0.064607083797454834
aF-0.24736572802066803
aF-0.10312893986701965
aF-0.042741067707538605
aF-0.19417372345924377
aF-0.2542259693145752
aF0.079526461660861969
aF-0.14823885262012482
aF0.048289481550455093
aF0.13594330847263336
aF0.16591386497020721
aF0.10398147255182266
aF0.06045464426279068
aF0.13707564771175385
aF0.0039168917573988438
aF-0.27246692776679993
aF-0.10979431122541428
aF0.099730916321277618
aF0.21898898482322693
aF-0.20389753580093384
aF-0.24061208963394165
aF0.018528223037719727
aF0.28898215293884277
aF-0.1624477207660675
aF-0.27083617448806763
aF-0.17370909452438354
aF-0.02437211200594902
aF0.19030918180942535
aF0.29224151372909546
aF-0.13127337396144867
aF0.31616020202636719
aF0.22894422709941864
aF-0.078140847384929657
aF0.24985574185848236
aF-0.28724032640457153
aF0.12462892383337021
aF-0.01394259836524725
aF0.22083462774753571
aF-0.12256872653961182
aF0.12800829112529755
aF-0.079442426562309265
atRp8
I0
(L40L
L10L
t(L10L
L1L
ttRp9
ag2
(g3
((lp10
F-0.193039670586586
aF-0.11429514735937119
aF-0.27251976728439331
aF0.27589491009712219
aF0.083047889173030853
aF0.090539269149303436
aF-0.13509641587734222
aF-0.067897595465183258
aF-0.02536233514547348
aF0.1419881135225296
aF0.15726080536842346
aF0.26084113121032715
aF0.011155122891068459
aF-0.25765317678451538
aF-0.094906561076641083
aF0.27950212359428406
aF0.30229750275611877
aF-0.11064759641885757
aF0.14203926920890808
aF0.059298813343048096
aF-0.10563851892948151
aF-0.26292657852172852
aF0.30175817012786865
aF-0.11458293348550797
aF0.0737423375248909
aF0.21513053774833679
aF-0.050078265368938446
aF0.18385167419910431
aF-0.31232613325119019
aF-0.27341094613075256
aF0.20279254019260406
aF0.22375553846359253
aF0.096077978610992432
aF-0.012583824805915356
aF-0.025527376681566238
aF0.051328945904970169
aF-0.098661765456199646
aF0.185686856508255
aF0.15013439953327179
aF-0.070146873593330383
atRp11
I0
(L40L
t(L1L
ttRp12
ag2
(g3
((lp13
F0.25700756907463074
aF0.27988752722740173
aF0.23739658296108246
aF0.16606450080871582
aF0.30715054273605347
aF-0.02374257892370224
aF-0.080671533942222595
aF0.23360402882099152
aF-0.066523872315883636
aF-0.11409252882003784
aF-0.18296332657337189
aF0.25517842173576355
aF-0.078231528401374817
aF-0.21790522336959839
aF-0.3094959557056427
aF-0.1768280565738678
aF-0.10197292268276215
aF-0.12910245358943939
aF-0.0092585720121860504
aF0.22488588094711304
aF0.28899657726287842
aF0.24555307626724243
aF0.13976621627807617
aF-0.041481621563434601
aF-0.091251939535140991
aF0.027370741590857506
aF-0.19004170596599579
aF-0.044902551919221878
aF0.1351468414068222
aF-0.0934019535779953
aF0.11059063673019409
aF0.28512570261955261
aF-0.15231847763061523
aF-0.15244117379188538
aF-0.2897295355796814
aF-0.019921205937862396
aF-0.10899048298597336
aF0.069444239139556885
aF0.24220472574234009
aF0.21066677570343018
atRp14
I0
(L40L
t(L1L
ttRp15
a.